target datalayout = "e-m:e-p270:32:32-p271:32:32-p272:64:64-i64:64-i128:128-f80:128-n8:16:32:64-S128"
target triple = "x86_64-pc-linux-gnu"

%struct.Poly1305 = type { [3 x i64], [3 x i64], [2 x i64], i64, [16 x i8], i8 }

; Function Attrs: nounwind uwtable
define internal void @U64TO8(ptr noundef %0, i64 noundef %1) #0 {
  %3 = alloca ptr, align 8
  %4 = alloca i64, align 8
  store ptr %0, ptr %3, align 8, !tbaa !8
  store i64 %1, ptr %4, align 8, !tbaa !12
  %5 = load i64, ptr %4, align 8, !tbaa !12
  %6 = trunc i64 %5 to i8
  %7 = load ptr, ptr %3, align 8, !tbaa !8
  %8 = getelementptr inbounds i8, ptr %7, i64 0
  store i8 %6, ptr %8, align 1, !tbaa !17
  %9 = load i64, ptr %4, align 8, !tbaa !12
  %10 = lshr i64 %9, 8
  %11 = trunc i64 %10 to i8
  %12 = load ptr, ptr %3, align 8, !tbaa !8
  %13 = getelementptr inbounds i8, ptr %12, i64 1
  store i8 %11, ptr %13, align 1, !tbaa !17
  %14 = load i64, ptr %4, align 8, !tbaa !12
  %15 = lshr i64 %14, 16
  %16 = trunc i64 %15 to i8
  %17 = load ptr, ptr %3, align 8, !tbaa !8
  %18 = getelementptr inbounds i8, ptr %17, i64 2
  store i8 %16, ptr %18, align 1, !tbaa !17
  %19 = load i64, ptr %4, align 8, !tbaa !12
  %20 = lshr i64 %19, 24
  %21 = trunc i64 %20 to i8
  %22 = load ptr, ptr %3, align 8, !tbaa !8
  %23 = getelementptr inbounds i8, ptr %22, i64 3
  store i8 %21, ptr %23, align 1, !tbaa !17
  %24 = load i64, ptr %4, align 8, !tbaa !12
  %25 = lshr i64 %24, 32
  %26 = trunc i64 %25 to i8
  %27 = load ptr, ptr %3, align 8, !tbaa !8
  %28 = getelementptr inbounds i8, ptr %27, i64 4
  store i8 %26, ptr %28, align 1, !tbaa !17
  %29 = load i64, ptr %4, align 8, !tbaa !12
  %30 = lshr i64 %29, 40
  %31 = trunc i64 %30 to i8
  %32 = load ptr, ptr %3, align 8, !tbaa !8
  %33 = getelementptr inbounds i8, ptr %32, i64 5
  store i8 %31, ptr %33, align 1, !tbaa !17
  %34 = load i64, ptr %4, align 8, !tbaa !12
  %35 = lshr i64 %34, 48
  %36 = trunc i64 %35 to i8
  %37 = load ptr, ptr %3, align 8, !tbaa !8
  %38 = getelementptr inbounds i8, ptr %37, i64 6
  store i8 %36, ptr %38, align 1, !tbaa !17
  %39 = load i64, ptr %4, align 8, !tbaa !12
  %40 = lshr i64 %39, 56
  %41 = trunc i64 %40 to i8
  %42 = load ptr, ptr %3, align 8, !tbaa !8
  %43 = getelementptr inbounds i8, ptr %42, i64 7
  store i8 %41, ptr %43, align 1, !tbaa !17
  ret void
}

; Function Attrs: nounwind uwtable
define internal i32 @poly1305_block(ptr noundef %0, ptr noundef %1) #0 {
  %3 = alloca ptr, align 8
  %4 = alloca ptr, align 8
  store ptr %0, ptr %3, align 8, !tbaa !3
  store ptr %1, ptr %4, align 8, !tbaa !8
  %5 = load ptr, ptr %3, align 8, !tbaa !3
  %6 = load ptr, ptr %4, align 8, !tbaa !8
  %7 = call i32 @poly1305_blocks(ptr noundef %5, ptr noundef %6, i64 noundef 16)
  ret i32 %7
}

; Function Attrs: nounwind uwtable
define i32 @wc_Poly1305Final(ptr noundef %0, ptr noundef %1) #0 {
  %3 = alloca i32, align 4
  %4 = alloca ptr, align 8
  %5 = alloca ptr, align 8
  %6 = alloca i64, align 8
  %7 = alloca i64, align 8
  %8 = alloca i64, align 8
  %9 = alloca i64, align 8
  %10 = alloca i64, align 8
  %11 = alloca i64, align 8
  %12 = alloca i64, align 8
  %13 = alloca i64, align 8
  %14 = alloca i64, align 8
  %15 = alloca i32, align 4
  %16 = alloca i64, align 8
  store ptr %0, ptr %4, align 8, !tbaa !3
  store ptr %1, ptr %5, align 8, !tbaa !8
  call void @llvm.lifetime.start.p0(i64 8, ptr %6) #4
  call void @llvm.lifetime.start.p0(i64 8, ptr %7) #4
  call void @llvm.lifetime.start.p0(i64 8, ptr %8) #4
  call void @llvm.lifetime.start.p0(i64 8, ptr %9) #4
  call void @llvm.lifetime.start.p0(i64 8, ptr %10) #4
  call void @llvm.lifetime.start.p0(i64 8, ptr %11) #4
  call void @llvm.lifetime.start.p0(i64 8, ptr %12) #4
  call void @llvm.lifetime.start.p0(i64 8, ptr %13) #4
  call void @llvm.lifetime.start.p0(i64 8, ptr %14) #4
  %17 = load ptr, ptr %4, align 8, !tbaa !3
  %18 = icmp eq ptr %17, null
  br i1 %18, label %22, label %19

19:                                               ; preds = %2
  %20 = load ptr, ptr %5, align 8, !tbaa !8
  %21 = icmp eq ptr %20, null
  br i1 %21, label %22, label %23

22:                                               ; preds = %19, %2
  store i32 -173, ptr %3, align 4
  store i32 1, ptr %15, align 4
  br label %238

23:                                               ; preds = %19
  %24 = load ptr, ptr %4, align 8, !tbaa !3
  %25 = getelementptr inbounds nuw %struct.Poly1305, ptr %24, i32 0, i32 3
  %26 = load i64, ptr %25, align 8, !tbaa !14
  %27 = icmp ne i64 %26, 0
  br i1 %27, label %28, label %57

28:                                               ; preds = %23
  call void @llvm.lifetime.start.p0(i64 8, ptr %16) #4
  %29 = load ptr, ptr %4, align 8, !tbaa !3
  %30 = getelementptr inbounds nuw %struct.Poly1305, ptr %29, i32 0, i32 3
  %31 = load i64, ptr %30, align 8, !tbaa !14
  store i64 %31, ptr %16, align 8, !tbaa !12
  %32 = load ptr, ptr %4, align 8, !tbaa !3
  %33 = getelementptr inbounds nuw %struct.Poly1305, ptr %32, i32 0, i32 4
  %34 = load i64, ptr %16, align 8, !tbaa !12
  %35 = getelementptr inbounds nuw [16 x i8], ptr %33, i64 0, i64 %34
  store i8 1, ptr %35, align 1, !tbaa !17
  %36 = load i64, ptr %16, align 8, !tbaa !12
  %37 = add i64 %36, 1
  store i64 %37, ptr %16, align 8, !tbaa !12
  br label %38

38:                                               ; preds = %46, %28
  %39 = load i64, ptr %16, align 8, !tbaa !12
  %40 = icmp ult i64 %39, 16
  br i1 %40, label %41, label %49

41:                                               ; preds = %38
  %42 = load ptr, ptr %4, align 8, !tbaa !3
  %43 = getelementptr inbounds nuw %struct.Poly1305, ptr %42, i32 0, i32 4
  %44 = load i64, ptr %16, align 8, !tbaa !12
  %45 = getelementptr inbounds nuw [16 x i8], ptr %43, i64 0, i64 %44
  store i8 0, ptr %45, align 1, !tbaa !17
  br label %46

46:                                               ; preds = %41
  %47 = load i64, ptr %16, align 8, !tbaa !12
  %48 = add i64 %47, 1
  store i64 %48, ptr %16, align 8, !tbaa !12
  br label %38, !llvm.loop !18

49:                                               ; preds = %38
  %50 = load ptr, ptr %4, align 8, !tbaa !3
  %51 = getelementptr inbounds nuw %struct.Poly1305, ptr %50, i32 0, i32 5
  store i8 1, ptr %51, align 8, !tbaa !16
  %52 = load ptr, ptr %4, align 8, !tbaa !3
  %53 = load ptr, ptr %4, align 8, !tbaa !3
  %54 = getelementptr inbounds nuw %struct.Poly1305, ptr %53, i32 0, i32 4
  %55 = getelementptr inbounds [16 x i8], ptr %54, i64 0, i64 0
  %56 = call i32 @poly1305_block(ptr noundef %52, ptr noundef %55)
  call void @llvm.lifetime.end.p0(i64 8, ptr %16) #4
  br label %57

57:                                               ; preds = %49, %23
  %58 = load ptr, ptr %4, align 8, !tbaa !3
  %59 = getelementptr inbounds nuw %struct.Poly1305, ptr %58, i32 0, i32 1
  %60 = getelementptr inbounds [3 x i64], ptr %59, i64 0, i64 0
  %61 = load i64, ptr %60, align 8, !tbaa !12
  store i64 %61, ptr %6, align 8, !tbaa !12
  %62 = load ptr, ptr %4, align 8, !tbaa !3
  %63 = getelementptr inbounds nuw %struct.Poly1305, ptr %62, i32 0, i32 1
  %64 = getelementptr inbounds [3 x i64], ptr %63, i64 0, i64 1
  %65 = load i64, ptr %64, align 8, !tbaa !12
  store i64 %65, ptr %7, align 8, !tbaa !12
  %66 = load ptr, ptr %4, align 8, !tbaa !3
  %67 = getelementptr inbounds nuw %struct.Poly1305, ptr %66, i32 0, i32 1
  %68 = getelementptr inbounds [3 x i64], ptr %67, i64 0, i64 2
  %69 = load i64, ptr %68, align 8, !tbaa !12
  store i64 %69, ptr %8, align 8, !tbaa !12
  %70 = load i64, ptr %7, align 8, !tbaa !12
  %71 = lshr i64 %70, 44
  store i64 %71, ptr %9, align 8, !tbaa !12
  %72 = load i64, ptr %7, align 8, !tbaa !12
  %73 = and i64 %72, 17592186044415
  store i64 %73, ptr %7, align 8, !tbaa !12
  %74 = load i64, ptr %9, align 8, !tbaa !12
  %75 = load i64, ptr %8, align 8, !tbaa !12
  %76 = add i64 %75, %74
  store i64 %76, ptr %8, align 8, !tbaa !12
  %77 = load i64, ptr %8, align 8, !tbaa !12
  %78 = lshr i64 %77, 42
  store i64 %78, ptr %9, align 8, !tbaa !12
  %79 = load i64, ptr %8, align 8, !tbaa !12
  %80 = and i64 %79, 4398046511103
  store i64 %80, ptr %8, align 8, !tbaa !12
  %81 = load i64, ptr %9, align 8, !tbaa !12
  %82 = mul i64 %81, 5
  %83 = load i64, ptr %6, align 8, !tbaa !12
  %84 = add i64 %83, %82
  store i64 %84, ptr %6, align 8, !tbaa !12
  %85 = load i64, ptr %6, align 8, !tbaa !12
  %86 = lshr i64 %85, 44
  store i64 %86, ptr %9, align 8, !tbaa !12
  %87 = load i64, ptr %6, align 8, !tbaa !12
  %88 = and i64 %87, 17592186044415
  store i64 %88, ptr %6, align 8, !tbaa !12
  %89 = load i64, ptr %9, align 8, !tbaa !12
  %90 = load i64, ptr %7, align 8, !tbaa !12
  %91 = add i64 %90, %89
  store i64 %91, ptr %7, align 8, !tbaa !12
  %92 = load i64, ptr %7, align 8, !tbaa !12
  %93 = lshr i64 %92, 44
  store i64 %93, ptr %9, align 8, !tbaa !12
  %94 = load i64, ptr %7, align 8, !tbaa !12
  %95 = and i64 %94, 17592186044415
  store i64 %95, ptr %7, align 8, !tbaa !12
  %96 = load i64, ptr %9, align 8, !tbaa !12
  %97 = load i64, ptr %8, align 8, !tbaa !12
  %98 = add i64 %97, %96
  store i64 %98, ptr %8, align 8, !tbaa !12
  %99 = load i64, ptr %8, align 8, !tbaa !12
  %100 = lshr i64 %99, 42
  store i64 %100, ptr %9, align 8, !tbaa !12
  %101 = load i64, ptr %8, align 8, !tbaa !12
  %102 = and i64 %101, 4398046511103
  store i64 %102, ptr %8, align 8, !tbaa !12
  %103 = load i64, ptr %9, align 8, !tbaa !12
  %104 = mul i64 %103, 5
  %105 = load i64, ptr %6, align 8, !tbaa !12
  %106 = add i64 %105, %104
  store i64 %106, ptr %6, align 8, !tbaa !12
  %107 = load i64, ptr %6, align 8, !tbaa !12
  %108 = lshr i64 %107, 44
  store i64 %108, ptr %9, align 8, !tbaa !12
  %109 = load i64, ptr %6, align 8, !tbaa !12
  %110 = and i64 %109, 17592186044415
  store i64 %110, ptr %6, align 8, !tbaa !12
  %111 = load i64, ptr %9, align 8, !tbaa !12
  %112 = load i64, ptr %7, align 8, !tbaa !12
  %113 = add i64 %112, %111
  store i64 %113, ptr %7, align 8, !tbaa !12
  %114 = load i64, ptr %6, align 8, !tbaa !12
  %115 = add i64 %114, 5
  store i64 %115, ptr %10, align 8, !tbaa !12
  %116 = load i64, ptr %10, align 8, !tbaa !12
  %117 = lshr i64 %116, 44
  store i64 %117, ptr %9, align 8, !tbaa !12
  %118 = load i64, ptr %10, align 8, !tbaa !12
  %119 = and i64 %118, 17592186044415
  store i64 %119, ptr %10, align 8, !tbaa !12
  %120 = load i64, ptr %7, align 8, !tbaa !12
  %121 = load i64, ptr %9, align 8, !tbaa !12
  %122 = add i64 %120, %121
  store i64 %122, ptr %11, align 8, !tbaa !12
  %123 = load i64, ptr %11, align 8, !tbaa !12
  %124 = lshr i64 %123, 44
  store i64 %124, ptr %9, align 8, !tbaa !12
  %125 = load i64, ptr %11, align 8, !tbaa !12
  %126 = and i64 %125, 17592186044415
  store i64 %126, ptr %11, align 8, !tbaa !12
  %127 = load i64, ptr %8, align 8, !tbaa !12
  %128 = load i64, ptr %9, align 8, !tbaa !12
  %129 = add i64 %127, %128
  %130 = sub i64 %129, 4398046511104
  store i64 %130, ptr %12, align 8, !tbaa !12
  %131 = load i64, ptr %12, align 8, !tbaa !12
  %132 = lshr i64 %131, 63
  %133 = sub i64 %132, 1
  store i64 %133, ptr %9, align 8, !tbaa !12
  %134 = load i64, ptr %9, align 8, !tbaa !12
  %135 = load i64, ptr %10, align 8, !tbaa !12
  %136 = and i64 %135, %134
  store i64 %136, ptr %10, align 8, !tbaa !12
  %137 = load i64, ptr %9, align 8, !tbaa !12
  %138 = load i64, ptr %11, align 8, !tbaa !12
  %139 = and i64 %138, %137
  store i64 %139, ptr %11, align 8, !tbaa !12
  %140 = load i64, ptr %9, align 8, !tbaa !12
  %141 = load i64, ptr %12, align 8, !tbaa !12
  %142 = and i64 %141, %140
  store i64 %142, ptr %12, align 8, !tbaa !12
  %143 = load i64, ptr %9, align 8, !tbaa !12
  %144 = xor i64 %143, -1
  store i64 %144, ptr %9, align 8, !tbaa !12
  %145 = load i64, ptr %6, align 8, !tbaa !12
  %146 = load i64, ptr %9, align 8, !tbaa !12
  %147 = and i64 %145, %146
  %148 = load i64, ptr %10, align 8, !tbaa !12
  %149 = or i64 %147, %148
  store i64 %149, ptr %6, align 8, !tbaa !12
  %150 = load i64, ptr %7, align 8, !tbaa !12
  %151 = load i64, ptr %9, align 8, !tbaa !12
  %152 = and i64 %150, %151
  %153 = load i64, ptr %11, align 8, !tbaa !12
  %154 = or i64 %152, %153
  store i64 %154, ptr %7, align 8, !tbaa !12
  %155 = load i64, ptr %8, align 8, !tbaa !12
  %156 = load i64, ptr %9, align 8, !tbaa !12
  %157 = and i64 %155, %156
  %158 = load i64, ptr %12, align 8, !tbaa !12
  %159 = or i64 %157, %158
  store i64 %159, ptr %8, align 8, !tbaa !12
  %160 = load ptr, ptr %4, align 8, !tbaa !3
  %161 = getelementptr inbounds nuw %struct.Poly1305, ptr %160, i32 0, i32 2
  %162 = getelementptr inbounds [2 x i64], ptr %161, i64 0, i64 0
  %163 = load i64, ptr %162, align 8, !tbaa !12
  store i64 %163, ptr %13, align 8, !tbaa !12
  %164 = load ptr, ptr %4, align 8, !tbaa !3
  %165 = getelementptr inbounds nuw %struct.Poly1305, ptr %164, i32 0, i32 2
  %166 = getelementptr inbounds [2 x i64], ptr %165, i64 0, i64 1
  %167 = load i64, ptr %166, align 8, !tbaa !12
  store i64 %167, ptr %14, align 8, !tbaa !12
  %168 = load i64, ptr %13, align 8, !tbaa !12
  %169 = and i64 %168, 17592186044415
  %170 = load i64, ptr %6, align 8, !tbaa !12
  %171 = add i64 %170, %169
  store i64 %171, ptr %6, align 8, !tbaa !12
  %172 = load i64, ptr %6, align 8, !tbaa !12
  %173 = lshr i64 %172, 44
  store i64 %173, ptr %9, align 8, !tbaa !12
  %174 = load i64, ptr %6, align 8, !tbaa !12
  %175 = and i64 %174, 17592186044415
  store i64 %175, ptr %6, align 8, !tbaa !12
  %176 = load i64, ptr %13, align 8, !tbaa !12
  %177 = lshr i64 %176, 44
  %178 = load i64, ptr %14, align 8, !tbaa !12
  %179 = shl i64 %178, 20
  %180 = or i64 %177, %179
  %181 = and i64 %180, 17592186044415
  %182 = load i64, ptr %9, align 8, !tbaa !12
  %183 = add i64 %181, %182
  %184 = load i64, ptr %7, align 8, !tbaa !12
  %185 = add i64 %184, %183
  store i64 %185, ptr %7, align 8, !tbaa !12
  %186 = load i64, ptr %7, align 8, !tbaa !12
  %187 = lshr i64 %186, 44
  store i64 %187, ptr %9, align 8, !tbaa !12
  %188 = load i64, ptr %7, align 8, !tbaa !12
  %189 = and i64 %188, 17592186044415
  store i64 %189, ptr %7, align 8, !tbaa !12
  %190 = load i64, ptr %14, align 8, !tbaa !12
  %191 = lshr i64 %190, 24
  %192 = and i64 %191, 4398046511103
  %193 = load i64, ptr %9, align 8, !tbaa !12
  %194 = add i64 %192, %193
  %195 = load i64, ptr %8, align 8, !tbaa !12
  %196 = add i64 %195, %194
  store i64 %196, ptr %8, align 8, !tbaa !12
  %197 = load i64, ptr %8, align 8, !tbaa !12
  %198 = and i64 %197, 4398046511103
  store i64 %198, ptr %8, align 8, !tbaa !12
  %199 = load i64, ptr %6, align 8, !tbaa !12
  %200 = load i64, ptr %7, align 8, !tbaa !12
  %201 = shl i64 %200, 44
  %202 = or i64 %199, %201
  store i64 %202, ptr %6, align 8, !tbaa !12
  %203 = load i64, ptr %7, align 8, !tbaa !12
  %204 = lshr i64 %203, 20
  %205 = load i64, ptr %8, align 8, !tbaa !12
  %206 = shl i64 %205, 24
  %207 = or i64 %204, %206
  store i64 %207, ptr %7, align 8, !tbaa !12
  %208 = load ptr, ptr %5, align 8, !tbaa !8
  %209 = getelementptr inbounds i8, ptr %208, i64 0
  %210 = load i64, ptr %6, align 8, !tbaa !12
  call void @U64TO8(ptr noundef %209, i64 noundef %210)
  %211 = load ptr, ptr %5, align 8, !tbaa !8
  %212 = getelementptr inbounds i8, ptr %211, i64 8
  %213 = load i64, ptr %7, align 8, !tbaa !12
  call void @U64TO8(ptr noundef %212, i64 noundef %213)
  %214 = load ptr, ptr %4, align 8, !tbaa !3
  %215 = getelementptr inbounds nuw %struct.Poly1305, ptr %214, i32 0, i32 1
  %216 = getelementptr inbounds [3 x i64], ptr %215, i64 0, i64 0
  store i64 0, ptr %216, align 8, !tbaa !12
  %217 = load ptr, ptr %4, align 8, !tbaa !3
  %218 = getelementptr inbounds nuw %struct.Poly1305, ptr %217, i32 0, i32 1
  %219 = getelementptr inbounds [3 x i64], ptr %218, i64 0, i64 1
  store i64 0, ptr %219, align 8, !tbaa !12
  %220 = load ptr, ptr %4, align 8, !tbaa !3
  %221 = getelementptr inbounds nuw %struct.Poly1305, ptr %220, i32 0, i32 1
  %222 = getelementptr inbounds [3 x i64], ptr %221, i64 0, i64 2
  store i64 0, ptr %222, align 8, !tbaa !12
  %223 = load ptr, ptr %4, align 8, !tbaa !3
  %224 = getelementptr inbounds nuw %struct.Poly1305, ptr %223, i32 0, i32 0
  %225 = getelementptr inbounds [3 x i64], ptr %224, i64 0, i64 0
  store i64 0, ptr %225, align 8, !tbaa !12
  %226 = load ptr, ptr %4, align 8, !tbaa !3
  %227 = getelementptr inbounds nuw %struct.Poly1305, ptr %226, i32 0, i32 0
  %228 = getelementptr inbounds [3 x i64], ptr %227, i64 0, i64 1
  store i64 0, ptr %228, align 8, !tbaa !12
  %229 = load ptr, ptr %4, align 8, !tbaa !3
  %230 = getelementptr inbounds nuw %struct.Poly1305, ptr %229, i32 0, i32 0
  %231 = getelementptr inbounds [3 x i64], ptr %230, i64 0, i64 2
  store i64 0, ptr %231, align 8, !tbaa !12
  %232 = load ptr, ptr %4, align 8, !tbaa !3
  %233 = getelementptr inbounds nuw %struct.Poly1305, ptr %232, i32 0, i32 2
  %234 = getelementptr inbounds [2 x i64], ptr %233, i64 0, i64 0
  store i64 0, ptr %234, align 8, !tbaa !12
  %235 = load ptr, ptr %4, align 8, !tbaa !3
  %236 = getelementptr inbounds nuw %struct.Poly1305, ptr %235, i32 0, i32 2
  %237 = getelementptr inbounds [2 x i64], ptr %236, i64 0, i64 1
  store i64 0, ptr %237, align 8, !tbaa !12
  store i32 0, ptr %3, align 4
  store i32 1, ptr %15, align 4
  br label %238

238:                                              ; preds = %57, %22
  call void @llvm.lifetime.end.p0(i64 8, ptr %14) #4
  call void @llvm.lifetime.end.p0(i64 8, ptr %13) #4
  call void @llvm.lifetime.end.p0(i64 8, ptr %12) #4
  call void @llvm.lifetime.end.p0(i64 8, ptr %11) #4
  call void @llvm.lifetime.end.p0(i64 8, ptr %10) #4
  call void @llvm.lifetime.end.p0(i64 8, ptr %9) #4
  call void @llvm.lifetime.end.p0(i64 8, ptr %8) #4
  call void @llvm.lifetime.end.p0(i64 8, ptr %7) #4
  call void @llvm.lifetime.end.p0(i64 8, ptr %6) #4
  %239 = load i32, ptr %3, align 4
  ret i32 %239
}