; Function Attrs: nofree norecurse nosync nounwind memory(argmem: readwrite) uwtable
define range(i32 -173, 1) i32 @wc_Poly1305Final(ptr noundef captures(address_is_null) %0, ptr noundef writeonly captures(address_is_null) %1) local_unnamed_addr #2 {
  %3 = icmp eq ptr %0, null
  %4 = icmp eq ptr %1, null
  %or.cond = or i1 %3, %4
  br i1 %or.cond, label %124, label %5

5:                                                ; preds = %2
  %6 = getelementptr inbounds nuw i8, ptr %0, i64 64
  %7 = load i64, ptr %6, align 8, !tbaa !7
  %.not = icmp eq i64 %7, 0
  br i1 %.not, label %15, label %8

8:                                                ; preds = %5
  %9 = getelementptr inbounds nuw i8, ptr %0, i64 72
  %10 = getelementptr inbounds nuw [16 x i8], ptr %9, i64 0, i64 %7
  store i8 1, ptr %10, align 1, !tbaa !10
  %.0104 = add i64 %7, 1
  %11 = icmp ult i64 %.0104, 16
  br i1 %11, label %.lr.ph.preheader, label %._crit_edge

.lr.ph.preheader:                                 ; preds = %8
  %12 = getelementptr i8, ptr %0, i64 %7
  %scevgep = getelementptr i8, ptr %12, i64 73
  %13 = sub nsw i64 15, %7
  tail call void @llvm.memset.p0.i64(ptr align 1 %scevgep, i8 0, i64 %13, i1 false), !tbaa !10
  br label %._crit_edge

._crit_edge:                                      ; preds = %.lr.ph.preheader, %8
  %14 = getelementptr inbounds nuw i8, ptr %0, i64 88
  store i8 1, ptr %14, align 8, !tbaa !9
  tail call fastcc void @poly1305_blocks(ptr noundef nonnull %0, ptr noundef nonnull readonly %9, i64 noundef 16)
  br label %15

15:                                               ; preds = %._crit_edge, %5
  %16 = getelementptr inbounds nuw i8, ptr %0, i64 24
  %17 = load i64, ptr %16, align 8, !tbaa !3
  %18 = getelementptr inbounds nuw i8, ptr %0, i64 32
  %19 = load i64, ptr %18, align 8, !tbaa !3
  %20 = getelementptr inbounds nuw i8, ptr %0, i64 40
  %21 = load i64, ptr %20, align 8, !tbaa !3
  %22 = lshr i64 %19, 44
  %23 = and i64 %19, 17592186044415
  %24 = add i64 %21, %22
  %25 = lshr i64 %24, 42
  %26 = and i64 %24, 4398046511103
  %27 = mul nuw nsw i64 %25, 5
  %28 = add i64 %27, %17
  %29 = lshr i64 %28, 44
  %30 = and i64 %28, 17592186044415
  %31 = add nuw nsw i64 %29, %23
  %32 = lshr i64 %31, 44
  %33 = and i64 %31, 17592186044415
  %34 = add nuw nsw i64 %32, %26
  %35 = lshr i64 %34, 42
  %36 = and i64 %34, 4398046511103
  %37 = mul nuw nsw i64 %35, 5
  %38 = add nuw nsw i64 %37, %30
  %39 = lshr i64 %38, 44
  %40 = and i64 %38, 17592186044415
  %41 = add nuw nsw i64 %39, %33
  %42 = add nuw nsw i64 %40, 5
  %43 = lshr i64 %42, 44
  %44 = add nuw nsw i64 %43, %41
  %45 = lshr i64 %44, 44
  %46 = add nuw nsw i64 %45, %36
  %47 = add nsw i64 %46, -4398046511104
  %.neg = ashr i64 %47, 63
  %48 = lshr i64 %47, 63
  %49 = add nsw i64 %48, -1
  %50 = and i64 %49, 17592186044415
  %51 = and i64 %50, %42
  %52 = and i64 %50, %44
  %53 = and i64 %49, %46
  %54 = and i64 %.neg, %40
  %55 = or i64 %54, %51
  %56 = and i64 %.neg, %41
  %57 = or i64 %56, %52
  %58 = and i64 %.neg, %34
  %59 = or i64 %53, %58
  %60 = getelementptr inbounds nuw i8, ptr %0, i64 48
  %61 = load i64, ptr %60, align 8, !tbaa !3
  %62 = getelementptr inbounds nuw i8, ptr %0, i64 56
  %63 = load i64, ptr %62, align 8, !tbaa !3
  %64 = and i64 %61, 17592186044415
  %65 = add nuw nsw i64 %55, %64
  %66 = lshr i64 %65, 44
  %67 = and i64 %65, 16492674416640
  %68 = tail call i64 @llvm.fshl.i64(i64 %63, i64 %61, i64 20)
  %69 = and i64 %68, 17592186044415
  %70 = add nuw nsw i64 %57, %69
  %71 = add nuw nsw i64 %70, %66
  %72 = lshr i64 %71, 44
  %73 = lshr i64 %63, 24
  %74 = add nuw nsw i64 %59, %73
  %75 = add nuw nsw i64 %74, %72
  %76 = shl i64 %71, 44
  %77 = or disjoint i64 %76, %67
  %78 = lshr i64 %71, 20
  %79 = shl i64 %75, 24
  %80 = trunc i64 %65 to i8
  store i8 %80, ptr %1, align 1, !tbaa !10
  %81 = lshr i64 %65, 8
  %82 = trunc i64 %81 to i8
  %83 = getelementptr inbounds nuw i8, ptr %1, i64 1
  store i8 %82, ptr %83, align 1, !tbaa !10
  %84 = lshr i64 %65, 16
  %85 = trunc i64 %84 to i8
  %86 = getelementptr inbounds nuw i8, ptr %1, i64 2
  store i8 %85, ptr %86, align 1, !tbaa !10
  %87 = lshr i64 %65, 24
  %88 = trunc i64 %87 to i8
  %89 = getelementptr inbounds nuw i8, ptr %1, i64 3
  store i8 %88, ptr %89, align 1, !tbaa !10
  %90 = lshr i64 %65, 32
  %91 = trunc i64 %90 to i8
  %92 = getelementptr inbounds nuw i8, ptr %1, i64 4
  store i8 %91, ptr %92, align 1, !tbaa !10
  %93 = lshr exact i64 %77, 40
  %94 = trunc i64 %93 to i8
  %95 = getelementptr inbounds nuw i8, ptr %1, i64 5
  store i8 %94, ptr %95, align 1, !tbaa !10
  %96 = lshr i64 %76, 48
  %97 = trunc i64 %96 to i8
  %98 = getelementptr inbounds nuw i8, ptr %1, i64 6
  store i8 %97, ptr %98, align 1, !tbaa !10
  %99 = lshr i64 %76, 56
  %100 = trunc nuw i64 %99 to i8
  %101 = getelementptr inbounds nuw i8, ptr %1, i64 7
  store i8 %100, ptr %101, align 1, !tbaa !10
  %102 = getelementptr inbounds nuw i8, ptr %1, i64 8
  %103 = trunc i64 %78 to i8
  store i8 %103, ptr %102, align 1, !tbaa !10
  %104 = lshr i64 %71, 28
  %105 = trunc i64 %104 to i8
  %106 = getelementptr inbounds nuw i8, ptr %1, i64 9
  store i8 %105, ptr %106, align 1, !tbaa !10
  %107 = lshr i64 %71, 36
  %108 = trunc i64 %107 to i8
  %109 = getelementptr inbounds nuw i8, ptr %1, i64 10
  store i8 %108, ptr %109, align 1, !tbaa !10
  %110 = trunc i64 %75 to i8
  %111 = getelementptr inbounds nuw i8, ptr %1, i64 11
  store i8 %110, ptr %111, align 1, !tbaa !10
  %112 = lshr i64 %79, 32
  %113 = trunc i64 %112 to i8
  %114 = getelementptr inbounds nuw i8, ptr %1, i64 12
  store i8 %113, ptr %114, align 1, !tbaa !10
  %115 = lshr i64 %79, 40
  %116 = trunc i64 %115 to i8
  %117 = getelementptr inbounds nuw i8, ptr %1, i64 13
  store i8 %116, ptr %117, align 1, !tbaa !10
  %118 = lshr i64 %79, 48
  %119 = trunc i64 %118 to i8
  %120 = getelementptr inbounds nuw i8, ptr %1, i64 14
  store i8 %119, ptr %120, align 1, !tbaa !10
  %121 = lshr i64 %79, 56
  %122 = trunc nuw i64 %121 to i8
  %123 = getelementptr inbounds nuw i8, ptr %1, i64 15
  store i8 %122, ptr %123, align 1, !tbaa !10
  tail call void @llvm.memset.p0.i64(ptr noundef nonnull align 8 dereferenceable(64) %0, i8 0, i64 64, i1 false)
  br label %124

124:                                              ; preds = %2, %15
  %.0100 = phi i32 [ 0, %15 ], [ -173, %2 ]
  ret i32 %.0100
}